; Function Attrs: nounwind sspstrong uwtable
define dso_local void @qemu_input_handler_activate(ptr noundef %s) local_unnamed_addr #0 {
entry:
  %node = getelementptr inbounds nuw i8, ptr %s, i64 32
  %0 = load ptr, ptr %node, align 8
  %cmp.not = icmp eq ptr %0, null
  %tql_prev6 = getelementptr inbounds nuw i8, ptr %s, i64 40
  %1 = load ptr, ptr %tql_prev6, align 8
  br i1 %cmp.not, label %if.else, label %if.then

if.then:                                          ; preds = %entry
  %tql_prev4 = getelementptr inbounds nuw i8, ptr %0, i64 40
  store ptr %1, ptr %tql_prev4, align 8
  %.pre = load ptr, ptr %node, align 8
  br label %if.end

if.else:                                          ; preds = %entry
  store ptr %1, ptr getelementptr inbounds nuw (i8, ptr @handlers, i64 8), align 8
  br label %if.end

if.end:                                           ; preds = %if.else, %if.then
  %2 = phi ptr [ null, %if.else ], [ %.pre, %if.then ]
  store ptr %2, ptr %1, align 8
  %3 = load ptr, ptr @handlers, align 8
  store ptr %3, ptr %node, align 8
  %cmp17.not = icmp eq ptr %3, null
  br i1 %cmp17.not, label %if.else22, label %if.then18

if.then18:                                        ; preds = %if.end
  %tql_prev21 = getelementptr inbounds nuw i8, ptr %3, i64 40
  store ptr %node, ptr %tql_prev21, align 8
  br label %if.end24

if.else22:                                        ; preds = %if.end
  store ptr %node, ptr getelementptr inbounds nuw (i8, ptr @handlers, i64 8), align 8
  br label %if.end24

if.end24:                                         ; preds = %if.else22, %if.then18
  %tql_prev9 = getelementptr inbounds nuw i8, ptr %s, i64 40
  store ptr %s, ptr @handlers, align 8
  store ptr @handlers, ptr %tql_prev9, align 8
  tail call void @notifier_list_notify(ptr noundef nonnull @mouse_mode_notifiers, ptr noundef null) #12
  ret void
}